target datalayout = "e-m:e-p270:32:32-p271:32:32-p272:64:64-i64:64-i128:128-f80:128-n8:16:32:64-S128"
target triple = "x86_64-pc-linux-gnu"

%struct.ssl_st = type { i32, ptr, ptr, ptr, %struct.CRYPTO_REF_COUNT, ptr, %struct.crypto_ex_data_st }
%struct.CRYPTO_REF_COUNT = type { i32 }
%struct.crypto_ex_data_st = type { ptr, ptr }

; Function Attrs: nounwind uwtable
define i32 @SSL_check_chain(ptr noundef %0, ptr noundef %1, ptr noundef %2, ptr noundef %3) #1 {
  %5 = alloca i32, align 4
  %6 = alloca ptr, align 8
  %7 = alloca ptr, align 8
  %8 = alloca ptr, align 8
  %9 = alloca ptr, align 8
  %10 = alloca ptr, align 8
  %11 = alloca i32, align 4
  store ptr %0, ptr %6, align 8, !tbaa !9
  store ptr %1, ptr %7, align 8, !tbaa !334
  store ptr %2, ptr %8, align 8, !tbaa !202
  store ptr %3, ptr %9, align 8, !tbaa !335
  call void @llvm.lifetime.start.p0(i64 8, ptr %10) #8
  %12 = load ptr, ptr %6, align 8, !tbaa !9
  %13 = icmp eq ptr %12, null
  br i1 %13, label %14, label %15

14:                                               ; preds = %4
  br label %36

15:                                               ; preds = %4
  %16 = load ptr, ptr %6, align 8, !tbaa !9
  %17 = getelementptr inbounds nuw %struct.ssl_st, ptr %16, i32 0, i32 0
  %18 = load i32, ptr %17, align 8, !tbaa !24
  %19 = icmp eq i32 %18, 0
  br i1 %19, label %20, label %22

20:                                               ; preds = %15
  %21 = load ptr, ptr %6, align 8, !tbaa !9
  br label %34

22:                                               ; preds = %15
  %23 = load ptr, ptr %6, align 8, !tbaa !9
  %24 = getelementptr inbounds nuw %struct.ssl_st, ptr %23, i32 0, i32 0
  %25 = load i32, ptr %24, align 8, !tbaa !24
  %26 = and i32 %25, 128
  %27 = icmp ne i32 %26, 0
  br i1 %27, label %28, label %31

28:                                               ; preds = %22
  %29 = load ptr, ptr %6, align 8, !tbaa !9
  %30 = call ptr @ossl_quic_obj_get0_handshake_layer(ptr noundef %29)
  br label %32

31:                                               ; preds = %22
  br label %32

32:                                               ; preds = %31, %28
  %33 = phi ptr [ %30, %28 ], [ null, %31 ]
  br label %34

34:                                               ; preds = %32, %20
  %35 = phi ptr [ %21, %20 ], [ %33, %32 ]
  br label %36

36:                                               ; preds = %34, %14
  %37 = phi ptr [ null, %14 ], [ %35, %34 ]
  store ptr %37, ptr %10, align 8, !tbaa !25
  %38 = load ptr, ptr %10, align 8, !tbaa !25
  %39 = icmp eq ptr %38, null
  br i1 %39, label %40, label %41

40:                                               ; preds = %36
  store i32 0, ptr %5, align 4
  store i32 1, ptr %11, align 4
  br label %47

41:                                               ; preds = %36
  %42 = load ptr, ptr %10, align 8, !tbaa !25
  %43 = load ptr, ptr %7, align 8, !tbaa !334
  %44 = load ptr, ptr %8, align 8, !tbaa !202
  %45 = load ptr, ptr %9, align 8, !tbaa !335
  %46 = call i32 @tls1_check_chain(ptr noundef %42, ptr noundef %43, ptr noundef %44, ptr noundef %45, i32 noundef -1)
  store i32 %46, ptr %5, align 4
  store i32 1, ptr %11, align 4
  br label %47

47:                                               ; preds = %41, %40
  call void @llvm.lifetime.end.p0(i64 8, ptr %10) #8
  %48 = load i32, ptr %5, align 4
  ret i32 %48
}