; Function Attrs: nounwind uwtable
define i32 @SSL_check_chain(ptr noundef %0, ptr noundef %1, ptr noundef %2, ptr noundef %3) local_unnamed_addr #2 {
  %5 = icmp eq ptr %0, null
  br i1 %5, label %.thread, label %6

6:                                                ; preds = %4
  %7 = load i32, ptr %0, align 8, !tbaa !19
  %8 = icmp eq i32 %7, 0
  br i1 %8, label %.thread13, label %9

9:                                                ; preds = %6
  %10 = and i32 %7, 128
  %.not = icmp eq i32 %10, 0
  br i1 %.not, label %.thread, label %11

11:                                               ; preds = %9
  %12 = tail call ptr @ossl_quic_obj_get0_handshake_layer(ptr noundef nonnull %0) #14
  %13 = icmp eq ptr %12, null
  br i1 %13, label %.thread, label %.thread13

.thread13:                                        ; preds = %6, %11
  %14 = phi ptr [ %12, %11 ], [ %0, %6 ]
  %15 = tail call i32 @tls1_check_chain(ptr noundef nonnull %14, ptr noundef %1, ptr noundef %2, ptr noundef %3, i32 noundef -1)
  br label %.thread

.thread:                                          ; preds = %9, %4, %11, %.thread13
  %.0 = phi i32 [ %15, %.thread13 ], [ 0, %11 ], [ 0, %4 ], [ 0, %9 ]
  ret i32 %.0
}